; Function Attrs: nounwind uwtable
define internal fastcc void @_jumbleNextValueExpr(ptr noundef captures(none) %0, ptr noundef nonnull readonly captures(none) %1) unnamed_addr #0 {
  %3 = getelementptr inbounds nuw i8, ptr %1, i64 4
  %4 = load ptr, ptr %0, align 8
  %5 = getelementptr inbounds nuw i8, ptr %0, i64 8
  %6 = load i64, ptr %5, align 8
  br label %.lr.ph.i

.lr.ph.i:                                         ; preds = %10, %2
  %.026.i = phi ptr [ %15, %10 ], [ %3, %2 ]
  %.02125.i = phi i64 [ %16, %10 ], [ 4, %2 ]
  %.02224.i = phi i64 [ %14, %10 ], [ %6, %2 ]
  %7 = icmp ugt i64 %.02224.i, 1023
  br i1 %7, label %8, label %10

8:                                                ; preds = %.lr.ph.i
  %9 = tail call i64 @hash_bytes_extended(ptr noundef %4, i32 noundef 1024, i64 noundef 0) #9
  store i64 %9, ptr %4, align 1
  br label %10

10:                                               ; preds = %8, %.lr.ph.i
  %.1.i = phi i64 [ 8, %8 ], [ %.02224.i, %.lr.ph.i ]
  %11 = sub nuw nsw i64 1024, %.1.i
  %12 = tail call i64 @llvm.umin.i64(i64 %.02125.i, i64 %11)
  %13 = getelementptr inbounds nuw i8, ptr %4, i64 %.1.i
  tail call void @llvm.memcpy.p0.p0.i64(ptr noundef nonnull align 1 dereferenceable(1) %13, ptr noundef nonnull align 1 dereferenceable(1) %.026.i, i64 %12, i1 false)
  %14 = add nuw nsw i64 %12, %.1.i
  %15 = getelementptr inbounds nuw i8, ptr %.026.i, i64 %12
  %16 = sub i64 %.02125.i, %12
  %.not.i = icmp eq i64 %16, 0
  br i1 %.not.i, label %AppendJumble.exit, label %.lr.ph.i, !llvm.loop !7

AppendJumble.exit:                                ; preds = %10
  store i64 %14, ptr %5, align 8
  %17 = getelementptr inbounds nuw i8, ptr %1, i64 8
  %18 = load ptr, ptr %0, align 8
  br label %.lr.ph.i5

.lr.ph.i5:                                        ; preds = %22, %AppendJumble.exit
  %.026.i6 = phi ptr [ %27, %22 ], [ %17, %AppendJumble.exit ]
  %.02125.i7 = phi i64 [ %28, %22 ], [ 4, %AppendJumble.exit ]
  %.02224.i8 = phi i64 [ %26, %22 ], [ %14, %AppendJumble.exit ]
  %19 = icmp ugt i64 %.02224.i8, 1023
  br i1 %19, label %20, label %22

20:                                               ; preds = %.lr.ph.i5
  %21 = tail call i64 @hash_bytes_extended(ptr noundef %18, i32 noundef 1024, i64 noundef 0) #9
  store i64 %21, ptr %18, align 1
  br label %22

22:                                               ; preds = %20, %.lr.ph.i5
  %.1.i9 = phi i64 [ 8, %20 ], [ %.02224.i8, %.lr.ph.i5 ]
  %23 = sub nuw nsw i64 1024, %.1.i9
  %24 = tail call i64 @llvm.umin.i64(i64 %.02125.i7, i64 %23)
  %25 = getelementptr inbounds nuw i8, ptr %18, i64 %.1.i9
  tail call void @llvm.memcpy.p0.p0.i64(ptr noundef nonnull align 1 dereferenceable(1) %25, ptr noundef nonnull align 1 dereferenceable(1) %.026.i6, i64 %24, i1 false)
  %26 = add nuw nsw i64 %24, %.1.i9
  %27 = getelementptr inbounds nuw i8, ptr %.026.i6, i64 %24
  %28 = sub i64 %.02125.i7, %24
  %.not.i10 = icmp eq i64 %28, 0
  br i1 %.not.i10, label %AppendJumble.exit11, label %.lr.ph.i5, !llvm.loop !7

AppendJumble.exit11:                              ; preds = %22
  store i64 %26, ptr %5, align 8
  ret void
}